target datalayout = "e-m:e-p270:32:32-p271:32:32-p272:64:64-i64:64-i128:128-f80:128-n8:16:32:64-S128"
target triple = "x86_64-pc-linux-gnu"

%struct.strmap_entry = type { %struct.hashmap_entry, ptr, ptr }
%struct.hashmap_entry = type { ptr, i32 }
%struct.strmap = type { %struct.hashmap, ptr, i8 }
%struct.hashmap = type { ptr, ptr, ptr, i32, i32, i32, i32, i8 }
%struct.hashmap_iter = type { ptr, ptr, i32 }

; Function Attrs: inlinehint nounwind uwtable
define internal ptr @container_of_or_null_offset(ptr noundef %0, i64 noundef %1) #5 {
  %3 = alloca ptr, align 8
  %4 = alloca i64, align 8
  store ptr %0, ptr %3, align 8, !tbaa !4
  store i64 %1, ptr %4, align 8, !tbaa !30
  %5 = load ptr, ptr %3, align 8, !tbaa !4
  %6 = icmp ne ptr %5, null
  br i1 %6, label %7, label %12

7:                                                ; preds = %2
  %8 = load ptr, ptr %3, align 8, !tbaa !4
  %9 = load i64, ptr %4, align 8, !tbaa !30
  %10 = sub i64 0, %9
  %11 = getelementptr inbounds i8, ptr %8, i64 %10
  br label %13

12:                                               ; preds = %2
  br label %13

13:                                               ; preds = %12, %7
  %14 = phi ptr [ %11, %7 ], [ null, %12 ]
  ret ptr %14
}

; Function Attrs: inlinehint nounwind uwtable
define internal ptr @hashmap_iter_first(ptr noundef %0, ptr noundef %1) #5 {
  %3 = alloca ptr, align 8
  %4 = alloca ptr, align 8
  store ptr %0, ptr %3, align 8, !tbaa !42
  store ptr %1, ptr %4, align 8, !tbaa !44
  %5 = load ptr, ptr %3, align 8, !tbaa !42
  %6 = load ptr, ptr %4, align 8, !tbaa !44
  call void @hashmap_iter_init(ptr noundef %5, ptr noundef %6)
  %7 = load ptr, ptr %4, align 8, !tbaa !44
  %8 = call ptr @hashmap_iter_next(ptr noundef %7)
  ret ptr %8
}

; Function Attrs: nounwind uwtable
define internal void @strmap_free_entries_(ptr noundef %0, i32 noundef %1) #0 {
  %3 = alloca ptr, align 8
  %4 = alloca i32, align 4
  %5 = alloca %struct.hashmap_iter, align 8
  %6 = alloca ptr, align 8
  %7 = alloca i32, align 4
  store ptr %0, ptr %3, align 8, !tbaa !17
  store i32 %1, ptr %4, align 4, !tbaa !21
  call void @llvm.lifetime.start.p0(i64 24, ptr %5) #8
  call void @llvm.lifetime.start.p0(i64 8, ptr %6) #8
  %8 = load ptr, ptr %3, align 8, !tbaa !17
  %9 = icmp ne ptr %8, null
  br i1 %9, label %11, label %10

10:                                               ; preds = %2
  store i32 1, ptr %7, align 4
  br label %47

11:                                               ; preds = %2
  %12 = load i32, ptr %4, align 4, !tbaa !21
  %13 = icmp ne i32 %12, 0
  br i1 %13, label %20, label %14

14:                                               ; preds = %11
  %15 = load ptr, ptr %3, align 8, !tbaa !17
  %16 = getelementptr inbounds nuw %struct.strmap, ptr %15, i32 0, i32 1
  %17 = load ptr, ptr %16, align 8, !tbaa !22
  %18 = icmp ne ptr %17, null
  br i1 %18, label %19, label %20

19:                                               ; preds = %14
  store i32 1, ptr %7, align 4
  br label %47

20:                                               ; preds = %14, %11
  store ptr null, ptr %6, align 8, !tbaa !10
  %21 = load ptr, ptr %3, align 8, !tbaa !17
  %22 = getelementptr inbounds nuw %struct.strmap, ptr %21, i32 0, i32 0
  %23 = call ptr @hashmap_iter_first(ptr noundef %22, ptr noundef %5)
  %24 = call ptr @container_of_or_null_offset(ptr noundef %23, i64 noundef 0)
  store ptr %24, ptr %6, align 8, !tbaa !10
  br label %25

25:                                               ; preds = %43, %20
  %26 = load ptr, ptr %6, align 8, !tbaa !10
  %27 = icmp ne ptr %26, null
  br i1 %27, label %28, label %46

28:                                               ; preds = %25
  %29 = load i32, ptr %4, align 4, !tbaa !21
  %30 = icmp ne i32 %29, 0
  br i1 %30, label %31, label %35

31:                                               ; preds = %28
  %32 = load ptr, ptr %6, align 8, !tbaa !10
  %33 = getelementptr inbounds nuw %struct.strmap_entry, ptr %32, i32 0, i32 2
  %34 = load ptr, ptr %33, align 8, !tbaa !26
  call void @free(ptr noundef %34) #8
  br label %35

35:                                               ; preds = %31, %28
  %36 = load ptr, ptr %3, align 8, !tbaa !17
  %37 = getelementptr inbounds nuw %struct.strmap, ptr %36, i32 0, i32 1
  %38 = load ptr, ptr %37, align 8, !tbaa !22
  %39 = icmp ne ptr %38, null
  br i1 %39, label %42, label %40

40:                                               ; preds = %35
  %41 = load ptr, ptr %6, align 8, !tbaa !10
  call void @free(ptr noundef %41) #8
  br label %42

42:                                               ; preds = %40, %35
  br label %43

43:                                               ; preds = %42
  %44 = call ptr @hashmap_iter_next(ptr noundef %5)
  %45 = call ptr @container_of_or_null_offset(ptr noundef %44, i64 noundef 0)
  store ptr %45, ptr %6, align 8, !tbaa !10
  br label %25, !llvm.loop !27

46:                                               ; preds = %25
  store i32 0, ptr %7, align 4
  br label %47

47:                                               ; preds = %46, %19, %10
  call void @llvm.lifetime.end.p0(i64 8, ptr %6) #8
  call void @llvm.lifetime.end.p0(i64 24, ptr %5) #8
  %48 = load i32, ptr %7, align 4
  switch i32 %48, label %50 [
    i32 0, label %49
    i32 1, label %49
  ]

49:                                               ; preds = %47, %47
  ret void

50:                                               ; preds = %47
  unreachable
}