; Function Attrs: nounwind uwtable
define internal fastcc void @strmap_free_entries_(ptr noundef %0, i32 noundef %1) unnamed_addr #5 {
  %3 = alloca %struct.hashmap_iter, align 8
  call void @llvm.lifetime.start.p0(i64 24, ptr nonnull %3) #10
  %.not = icmp eq ptr %0, null
  br i1 %.not, label %.loopexit, label %4

4:                                                ; preds = %2
  %.not9 = icmp eq i32 %1, 0
  br i1 %.not9, label %5, label %8

5:                                                ; preds = %4
  %6 = getelementptr inbounds nuw i8, ptr %0, i64 48
  %7 = load ptr, ptr %6, align 8, !tbaa !13
  %.not10 = icmp eq ptr %7, null
  br i1 %.not10, label %8, label %.loopexit

8:                                                ; preds = %5, %4
  call void @hashmap_iter_init(ptr noundef nonnull %0, ptr noundef nonnull %3) #10
  %9 = call ptr @hashmap_iter_next(ptr noundef nonnull %3) #10
  %.not1113 = icmp eq ptr %9, null
  br i1 %.not1113, label %.loopexit, label %.lr.ph

.lr.ph:                                           ; preds = %8
  %10 = getelementptr inbounds nuw i8, ptr %0, i64 48
  br i1 %.not9, label %.lr.ph.split.us, label %.lr.ph.split

.lr.ph.split.us:                                  ; preds = %.lr.ph, %13
  %.014.us = phi ptr [ %14, %13 ], [ %9, %.lr.ph ]
  %11 = load ptr, ptr %10, align 8, !tbaa !13
  %.not12.us = icmp eq ptr %11, null
  br i1 %.not12.us, label %12, label %13

12:                                               ; preds = %.lr.ph.split.us
  call void @free(ptr noundef nonnull %.014.us) #10
  br label %13

13:                                               ; preds = %12, %.lr.ph.split.us
  %14 = call ptr @hashmap_iter_next(ptr noundef nonnull %3) #10
  %.not11.us = icmp eq ptr %14, null
  br i1 %.not11.us, label %.loopexit, label %.lr.ph.split.us, !llvm.loop !18

.lr.ph.split:                                     ; preds = %.lr.ph, %19
  %.014 = phi ptr [ %20, %19 ], [ %9, %.lr.ph ]
  %15 = getelementptr inbounds nuw i8, ptr %.014, i64 24
  %16 = load ptr, ptr %15, align 8, !tbaa !20
  call void @free(ptr noundef %16) #10
  %17 = load ptr, ptr %10, align 8, !tbaa !13
  %.not12 = icmp eq ptr %17, null
  br i1 %.not12, label %18, label %19

18:                                               ; preds = %.lr.ph.split
  call void @free(ptr noundef nonnull %.014) #10
  br label %19

19:                                               ; preds = %.lr.ph.split, %18
  %20 = call ptr @hashmap_iter_next(ptr noundef nonnull %3) #10
  %.not11 = icmp eq ptr %20, null
  br i1 %.not11, label %.loopexit, label %.lr.ph.split, !llvm.loop !18

.loopexit:                                        ; preds = %19, %13, %8, %5, %2
  call void @llvm.lifetime.end.p0(i64 24, ptr nonnull %3) #10
  ret void
}